target datalayout = "e-m:e-p270:32:32-p271:32:32-p272:64:64-i64:64-i128:128-f80:128-n8:16:32:64-S128"
target triple = "x86_64-pc-linux-gnu"

%struct.x509_store_ctx_st = type { ptr, i32, ptr, ptr, ptr, ptr, ptr, ptr, ptr, ptr, ptr, ptr, ptr, ptr, ptr, ptr, ptr, ptr, ptr, i32, i32, ptr, ptr, i32, i32, i32, ptr, ptr, ptr, i32, i32, ptr, %struct.crypto_ex_data_st }
%struct.crypto_ex_data_st = type { ptr }
%struct.X509_VERIFY_PARAM_st = type { ptr, i64, i64, i64, i32, i32, i32, ptr, ptr }
%struct.X509_crl_st = type { ptr, ptr, ptr, i32, i32, ptr, ptr, i32, i32, ptr, ptr, [20 x i8], ptr, ptr, ptr }
%struct.x509_revoked_st = type { ptr, ptr, ptr, ptr, i32, i32 }

; Function Attrs: nounwind uwtable
define internal i32 @cert_crl(ptr noundef %0, ptr noundef %1, ptr noundef %2) #0 {
  %4 = alloca i32, align 4
  %5 = alloca ptr, align 8
  %6 = alloca ptr, align 8
  %7 = alloca ptr, align 8
  %8 = alloca i32, align 4
  %9 = alloca ptr, align 8
  %10 = alloca i32, align 4
  store ptr %0, ptr %5, align 8, !tbaa !6
  store ptr %1, ptr %6, align 8, !tbaa !101
  store ptr %2, ptr %7, align 8, !tbaa !11
  call void @llvm.lifetime.start.p0(i64 4, ptr %8) #8
  call void @llvm.lifetime.start.p0(i64 8, ptr %9) #8
  %11 = load ptr, ptr %5, align 8, !tbaa !6
  %12 = getelementptr inbounds nuw %struct.x509_store_ctx_st, ptr %11, i32 0, i32 5
  %13 = load ptr, ptr %12, align 8, !tbaa !15
  %14 = getelementptr inbounds nuw %struct.X509_VERIFY_PARAM_st, ptr %13, i32 0, i32 3
  %15 = load i64, ptr %14, align 8, !tbaa !39
  %16 = and i64 %15, 16
  %17 = icmp ne i64 %16, 0
  br i1 %17, label %36, label %18

18:                                               ; preds = %3
  %19 = load ptr, ptr %6, align 8, !tbaa !101
  %20 = getelementptr inbounds nuw %struct.X509_crl_st, ptr %19, i32 0, i32 4
  %21 = load i32, ptr %20, align 4, !tbaa !168
  %22 = and i32 %21, 512
  %23 = icmp ne i32 %22, 0
  br i1 %23, label %24, label %36

24:                                               ; preds = %18
  %25 = load ptr, ptr %5, align 8, !tbaa !6
  %26 = getelementptr inbounds nuw %struct.x509_store_ctx_st, ptr %25, i32 0, i32 25
  store i32 36, ptr %26, align 8, !tbaa !41
  %27 = load ptr, ptr %5, align 8, !tbaa !6
  %28 = getelementptr inbounds nuw %struct.x509_store_ctx_st, ptr %27, i32 0, i32 8
  %29 = load ptr, ptr %28, align 8, !tbaa !29
  %30 = load ptr, ptr %5, align 8, !tbaa !6
  %31 = call i32 %29(i32 noundef 0, ptr noundef %30)
  store i32 %31, ptr %8, align 4, !tbaa !13
  %32 = load i32, ptr %8, align 4, !tbaa !13
  %33 = icmp ne i32 %32, 0
  br i1 %33, label %35, label %34

34:                                               ; preds = %24
  store i32 0, ptr %4, align 4
  store i32 1, ptr %10, align 4
  br label %60

35:                                               ; preds = %24
  br label %36

36:                                               ; preds = %35, %18, %3
  %37 = load ptr, ptr %6, align 8, !tbaa !101
  %38 = load ptr, ptr %7, align 8, !tbaa !11
  %39 = call i32 @X509_CRL_get0_by_cert(ptr noundef %37, ptr noundef %9, ptr noundef %38)
  %40 = icmp ne i32 %39, 0
  br i1 %40, label %41, label %59

41:                                               ; preds = %36
  %42 = load ptr, ptr %9, align 8, !tbaa !125
  %43 = getelementptr inbounds nuw %struct.x509_revoked_st, ptr %42, i32 0, i32 4
  %44 = load i32, ptr %43, align 8, !tbaa !169
  %45 = icmp eq i32 %44, 8
  br i1 %45, label %46, label %47

46:                                               ; preds = %41
  store i32 2, ptr %4, align 4
  store i32 1, ptr %10, align 4
  br label %60

47:                                               ; preds = %41
  %48 = load ptr, ptr %5, align 8, !tbaa !6
  %49 = getelementptr inbounds nuw %struct.x509_store_ctx_st, ptr %48, i32 0, i32 25
  store i32 23, ptr %49, align 8, !tbaa !41
  %50 = load ptr, ptr %5, align 8, !tbaa !6
  %51 = getelementptr inbounds nuw %struct.x509_store_ctx_st, ptr %50, i32 0, i32 8
  %52 = load ptr, ptr %51, align 8, !tbaa !29
  %53 = load ptr, ptr %5, align 8, !tbaa !6
  %54 = call i32 %52(i32 noundef 0, ptr noundef %53)
  store i32 %54, ptr %8, align 4, !tbaa !13
  %55 = load i32, ptr %8, align 4, !tbaa !13
  %56 = icmp ne i32 %55, 0
  br i1 %56, label %58, label %57

57:                                               ; preds = %47
  store i32 0, ptr %4, align 4
  store i32 1, ptr %10, align 4
  br label %60

58:                                               ; preds = %47
  br label %59

59:                                               ; preds = %58, %36
  store i32 1, ptr %4, align 4
  store i32 1, ptr %10, align 4
  br label %60

60:                                               ; preds = %59, %57, %46, %34
  call void @llvm.lifetime.end.p0(i64 8, ptr %9) #8
  call void @llvm.lifetime.end.p0(i64 4, ptr %8) #8
  %61 = load i32, ptr %4, align 4
  ret i32 %61
}