; Function Attrs: nounwind uwtable
define internal range(i32 0, 3) i32 @cert_crl(ptr noundef %0, ptr noundef %1, ptr noundef %2) #0 {
  %4 = alloca ptr, align 8
  call void @llvm.lifetime.start.p0(i64 8, ptr nonnull %4) #14
  %5 = getelementptr inbounds nuw i8, ptr %0, i64 40
  %6 = load ptr, ptr %5, align 8, !tbaa !6
  %7 = getelementptr inbounds nuw i8, ptr %6, i64 24
  %8 = load i64, ptr %7, align 8, !tbaa !44
  %9 = and i64 %8, 16
  %.not = icmp eq i64 %9, 0
  br i1 %.not, label %10, label %19

10:                                               ; preds = %3
  %11 = getelementptr inbounds nuw i8, ptr %1, i64 28
  %12 = load i32, ptr %11, align 4, !tbaa !159
  %13 = and i32 %12, 512
  %.not12 = icmp eq i32 %13, 0
  br i1 %.not12, label %19, label %14

14:                                               ; preds = %10
  %15 = getelementptr inbounds nuw i8, ptr %0, i64 184
  store i32 36, ptr %15, align 8, !tbaa !50
  %16 = getelementptr inbounds nuw i8, ptr %0, i64 64
  %17 = load ptr, ptr %16, align 8, !tbaa !24
  %18 = tail call i32 %17(i32 noundef 0, ptr noundef nonnull %0) #14
  %.not13 = icmp eq i32 %18, 0
  br i1 %.not13, label %32, label %19

19:                                               ; preds = %14, %10, %3
  %20 = call i32 @X509_CRL_get0_by_cert(ptr noundef %1, ptr noundef nonnull %4, ptr noundef %2) #14
  %.not14 = icmp eq i32 %20, 0
  br i1 %.not14, label %31, label %21

21:                                               ; preds = %19
  %22 = load ptr, ptr %4, align 8, !tbaa !121
  %23 = getelementptr inbounds nuw i8, ptr %22, i64 32
  %24 = load i32, ptr %23, align 8, !tbaa !160
  %25 = icmp eq i32 %24, 8
  br i1 %25, label %32, label %26

26:                                               ; preds = %21
  %27 = getelementptr inbounds nuw i8, ptr %0, i64 184
  store i32 23, ptr %27, align 8, !tbaa !50
  %28 = getelementptr inbounds nuw i8, ptr %0, i64 64
  %29 = load ptr, ptr %28, align 8, !tbaa !24
  %30 = call i32 %29(i32 noundef 0, ptr noundef nonnull %0) #14
  %.not15 = icmp eq i32 %30, 0
  br i1 %.not15, label %32, label %31

31:                                               ; preds = %26, %19
  br label %32

32:                                               ; preds = %26, %21, %14, %31
  %.0 = phi i32 [ 1, %31 ], [ 0, %14 ], [ 2, %21 ], [ 0, %26 ]
  call void @llvm.lifetime.end.p0(i64 8, ptr nonnull %4) #14
  ret i32 %.0
}